; Function Attrs: mustprogress nofree norecurse nosync nounwind null_pointer_is_valid sspstrong willreturn memory(read, inaccessiblemem: none) uwtable
define noundef ptr @_ZN11CaptureFile10packetInfoEv(ptr noundef readonly align 8 captures(none) dereferenceable_or_null(48) %0) local_unnamed_addr #12 align 2 {
  %2 = getelementptr inbounds nuw i8, ptr %0, i64 16
  %3 = load ptr, ptr %2, align 8
  %.not.i.i = icmp eq ptr %3, null
  br i1 %.not.i.i, label %_ZNK11CaptureFile7capFileEv.exit.thread, label %4

4:                                                ; preds = %1
  %5 = getelementptr inbounds nuw i8, ptr %3, i64 8
  %6 = load i32, ptr %5, align 8
  %switch.i.i = icmp ult i32 %6, 2
  br i1 %switch.i.i, label %_ZNK11CaptureFile7capFileEv.exit.thread, label %_ZNK11CaptureFile7capFileEv.exit6

_ZNK11CaptureFile7capFileEv.exit6:                ; preds = %4
  %7 = getelementptr inbounds nuw i8, ptr %3, i64 360
  %8 = load ptr, ptr %7, align 8
  %.not2 = icmp eq ptr %8, null
  %9 = getelementptr inbounds nuw i8, ptr %8, i64 24
  %spec.select = select i1 %.not2, ptr null, ptr %9
  br label %_ZNK11CaptureFile7capFileEv.exit.thread

_ZNK11CaptureFile7capFileEv.exit.thread:          ; preds = %_ZNK11CaptureFile7capFileEv.exit6, %4, %1
  %.0 = phi ptr [ null, %1 ], [ null, %4 ], [ %spec.select, %_ZNK11CaptureFile7capFileEv.exit6 ]
  ret ptr %.0
}